; Function Attrs: mustprogress nofree norecurse nounwind memory(read, argmem: readwrite, inaccessiblemem: none) uwtable
define noundef double @_ZNK7rocksdb13HistogramImpl6MedianEv(ptr noundef nonnull readonly align 8 captures(none) dereferenceable(968) %0) unnamed_addr #5 align 2 personality ptr @__gxx_personality_v0 {
  %2 = getelementptr inbounds nuw i8, ptr %0, i64 8
  %3 = getelementptr inbounds nuw i8, ptr %0, i64 24
  %4 = load atomic i64, ptr %3 monotonic, align 8
  %5 = uitofp i64 %4 to double
  %6 = fmul double %5, 5.000000e-01
  %7 = getelementptr inbounds nuw i8, ptr %0, i64 920
  %8 = load i64, ptr %7, align 8, !tbaa !25
  %.not4857.not.i.i = icmp eq i64 %8, 0
  br i1 %.not4857.not.i.i, label %._crit_edge.i.i, label %.lr.ph.i.i

.lr.ph.i.i:                                       ; preds = %1
  %9 = getelementptr inbounds nuw i8, ptr %0, i64 48
  br label %10

10:                                               ; preds = %42, %.lr.ph.i.i
  %11 = phi i64 [ 0, %.lr.ph.i.i ], [ %44, %42 ]
  %.03559.i.i = phi i64 [ 0, %.lr.ph.i.i ], [ %14, %42 ]
  %.03858.i.i = phi i32 [ 0, %.lr.ph.i.i ], [ %43, %42 ]
  %12 = getelementptr inbounds nuw [109 x %"struct.std::atomic"], ptr %9, i64 0, i64 %11
  %13 = load atomic i64, ptr %12 monotonic, align 8
  %14 = add i64 %13, %.03559.i.i
  %15 = uitofp i64 %14 to double
  %16 = fcmp ugt double %6, %15
  br i1 %16, label %42, label %17

17:                                               ; preds = %10
  %18 = icmp eq i32 %.03858.i.i, 0
  %.pre.i.i = load ptr, ptr @_ZN7rocksdb12_GLOBAL__N_112bucketMapperE, align 8, !tbaa !4
  br i1 %18, label %.thread51.i.i, label %19

19:                                               ; preds = %17
  %20 = add i32 %.03858.i.i, -1
  %21 = zext i32 %20 to i64
  %22 = getelementptr inbounds nuw i64, ptr %.pre.i.i, i64 %21
  %23 = load i64, ptr %22, align 8, !tbaa !12
  br label %.thread51.i.i

.thread51.i.i:                                    ; preds = %19, %17
  %24 = phi i64 [ %23, %19 ], [ 0, %17 ]
  %25 = getelementptr inbounds nuw i64, ptr %.pre.i.i, i64 %11
  %26 = load i64, ptr %25, align 8, !tbaa !12
  %.not.i.i = icmp eq i64 %13, 0
  %27 = uitofp i64 %.03559.i.i to double
  %28 = fsub double %6, %27
  %29 = uitofp i64 %13 to double
  %30 = fdiv double %28, %29
  %.039.i.i = select i1 %.not.i.i, double 0.000000e+00, double %30
  %31 = uitofp i64 %24 to double
  %32 = sub i64 %26, %24
  %33 = uitofp i64 %32 to double
  %34 = tail call double @llvm.fmuladd.f64(double %33, double %.039.i.i, double %31)
  %35 = load atomic i64, ptr %2 monotonic, align 8
  %36 = getelementptr inbounds nuw i8, ptr %0, i64 16
  %37 = load atomic i64, ptr %36 monotonic, align 8
  %38 = uitofp i64 %35 to double
  %39 = fcmp olt double %34, %38
  %.036.i.i = select i1 %39, double %38, double %34
  %40 = uitofp i64 %37 to double
  %41 = fcmp ogt double %.036.i.i, %40
  %.137.i.i = select i1 %41, double %40, double %.036.i.i
  br label %_ZNK7rocksdb13HistogramStat6MedianEv.exit

42:                                               ; preds = %10
  %43 = add i32 %.03858.i.i, 1
  %44 = zext i32 %43 to i64
  %.not48.i.i = icmp ugt i64 %8, %44
  br i1 %.not48.i.i, label %10, label %._crit_edge.i.i, !llvm.loop !33

._crit_edge.i.i:                                  ; preds = %42, %1
  %45 = getelementptr inbounds nuw i8, ptr %0, i64 16
  %46 = load atomic i64, ptr %45 monotonic, align 8
  %47 = uitofp i64 %46 to double
  br label %_ZNK7rocksdb13HistogramStat6MedianEv.exit

_ZNK7rocksdb13HistogramStat6MedianEv.exit:        ; preds = %.thread51.i.i, %._crit_edge.i.i
  %.3.i.i = phi double [ %47, %._crit_edge.i.i ], [ %.137.i.i, %.thread51.i.i ]
  ret double %.3.i.i
}